; Function Attrs: nounwind uwtable
define internal i32 @SpoolssSetPrinterDataEx_q(ptr noundef %0, i32 noundef %1, ptr noundef %2, ptr noundef %3, ptr noundef %4, ptr noundef %5) #0 {
  %7 = alloca ptr, align 8
  %8 = alloca ptr, align 8
  %9 = alloca i32, align 4
  %10 = load i32, ptr @hf_printerdata, align 4
  %11 = tail call ptr @proto_tree_add_uint(ptr noundef %3, i32 noundef %10, ptr noundef %0, i32 noundef %1, i32 noundef 0, i32 noundef 1) #5
  %.not.i = icmp eq ptr %11, null
  br i1 %.not.i, label %proto_item_set_hidden.exit, label %12

12:                                               ; preds = %6
  %13 = getelementptr inbounds nuw i8, ptr %11, i64 32
  %14 = load ptr, ptr %13, align 8
  %.not5.i = icmp eq ptr %14, null
  br i1 %.not5.i, label %proto_item_set_hidden.exit, label %15

15:                                               ; preds = %12
  %16 = getelementptr inbounds nuw i8, ptr %14, i64 28
  %17 = load i32, ptr %16, align 4
  %18 = or i32 %17, 1
  store i32 %18, ptr %16, align 4
  br label %proto_item_set_hidden.exit

proto_item_set_hidden.exit:                       ; preds = %6, %12, %15
  %19 = load i32, ptr @hf_hnd, align 4
  %20 = tail call i32 @dissect_nt_policy_hnd(ptr noundef %0, i32 noundef %1, ptr noundef %2, ptr noundef %3, ptr noundef %4, ptr noundef %5, i32 noundef %19, ptr noundef null, ptr noundef null, i32 noundef 0, i32 noundef 0) #5
  %21 = load i32, ptr @hf_printerdata_key, align 4
  %22 = call i32 @dissect_ndr_cvstring(ptr noundef %0, i32 noundef %20, ptr noundef %2, ptr noundef %3, ptr noundef %4, ptr noundef %5, i32 noundef 2, i32 noundef %21, i32 noundef 1, ptr noundef nonnull %7) #5
  %23 = load i32, ptr @hf_printerdata_value, align 4
  %24 = call i32 @dissect_ndr_cvstring(ptr noundef %0, i32 noundef %22, ptr noundef %2, ptr noundef %3, ptr noundef %4, ptr noundef %5, i32 noundef 2, i32 noundef %23, i32 noundef 1, ptr noundef nonnull %8) #5
  %25 = getelementptr inbounds nuw i8, ptr %2, i64 8
  %26 = load ptr, ptr %25, align 8
  %27 = load ptr, ptr %7, align 8
  %28 = load ptr, ptr %8, align 8
  call void (ptr, i32, ptr, ...) @col_append_fstr(ptr noundef %26, i32 noundef 25, ptr noundef nonnull @.str.1252, ptr noundef %27, ptr noundef %28) #5
  %29 = load i32, ptr @hf_printerdata_type, align 4
  %30 = call i32 @dissect_ndr_uint32(ptr noundef %0, i32 noundef %24, ptr noundef %2, ptr noundef %3, ptr noundef %4, ptr noundef %5, i32 noundef %29, ptr noundef null) #5
  %31 = load i32, ptr @hf_setprinterdataex_max_len, align 4
  %32 = call i32 @dissect_ndr_uint32(ptr noundef %0, i32 noundef %30, ptr noundef %2, ptr noundef %3, ptr noundef %4, ptr noundef %5, i32 noundef %31, ptr noundef nonnull %9) #5
  %33 = load i32, ptr @hf_setprinterdataex_data, align 4
  %34 = load i32, ptr %9, align 4
  %35 = call i32 @dissect_ndr_uint8s(ptr noundef %0, i32 noundef %32, ptr noundef %2, ptr noundef %3, ptr noundef %4, ptr noundef %5, i32 noundef %33, i32 noundef %34, ptr noundef null) #5
  %36 = load i32, ptr @hf_setprinterdataex_real_len, align 4
  %37 = call i32 @dissect_ndr_uint32(ptr noundef %0, i32 noundef %35, ptr noundef %2, ptr noundef %3, ptr noundef %4, ptr noundef %5, i32 noundef %36, ptr noundef null) #5
  ret i32 %37
}